; Function Attrs: null_pointer_is_valid sspstrong uwtable
define internal noundef zeroext i1 @sint24_from_uinteger64(ptr noundef writeonly captures(none) %0, ptr noundef %1, i64 noundef %2, ptr noundef writeonly captures(address_is_null) %3) #0 {
  %5 = icmp slt i64 %2, 0
  br i1 %5, label %6, label %9

6:                                                ; preds = %4
  %.not25.i = icmp eq ptr %3, null
  br i1 %.not25.i, label %_sint64_from_uinteger64.exit, label %7

7:                                                ; preds = %6
  %8 = tail call noalias ptr (ptr, ptr, ...) @wmem_strdup_printf(ptr noundef null, ptr noundef nonnull @.str.52, ptr noundef %1, i64 noundef 8388607)
  store ptr %8, ptr %3, align 8
  br label %_sint64_from_uinteger64.exit

9:                                                ; preds = %4
  %.not26.i = icmp samesign ugt i64 %2, 8388607
  br i1 %.not26.i, label %10, label %13

10:                                               ; preds = %9
  %.not.i = icmp eq ptr %3, null
  br i1 %.not.i, label %_sint64_from_uinteger64.exit, label %11

11:                                               ; preds = %10
  %12 = tail call noalias ptr (ptr, ptr, ...) @wmem_strdup_printf(ptr noundef null, ptr noundef nonnull @.str.52, ptr noundef %1, i64 noundef 8388607)
  store ptr %12, ptr %3, align 8
  br label %_sint64_from_uinteger64.exit

13:                                               ; preds = %9
  %14 = getelementptr inbounds nuw i8, ptr %0, i64 8
  store i64 %2, ptr %14, align 8
  br label %_sint64_from_uinteger64.exit

_sint64_from_uinteger64.exit:                     ; preds = %6, %7, %10, %11, %13
  %.0.i = phi i1 [ false, %7 ], [ false, %6 ], [ false, %10 ], [ false, %11 ], [ true, %13 ]
  ret i1 %.0.i
}